target datalayout = "e-m:e-p270:32:32-p271:32:32-p272:64:64-i64:64-i128:128-f80:128-n8:16:32:64-S128"
target triple = "x86_64-pc-linux-gnu"

%class.State = type { [315 x i32], [315 x i16], i32, ptr, [2 x ptr] }

@UseAVX = external global i32, align 4

; Function Attrs: mustprogress nounwind uwtable
define hidden void @_ZN5State26_sub_Op_StoreVectorScatterEPK4Node(ptr noundef nonnull align 8 dereferenceable(1920) %0, ptr noundef %1) #1 align 2 {
  %3 = alloca ptr, align 8
  %4 = alloca ptr, align 8
  %5 = alloca i32, align 4
  store ptr %0, ptr %3, align 8
  store ptr %1, ptr %4, align 8
  %6 = load ptr, ptr %3, align 8
  %7 = getelementptr inbounds %class.State, ptr %6, i32 0, i32 4
  %8 = getelementptr inbounds [2 x ptr], ptr %7, i64 0, i64 0
  %9 = load ptr, ptr %8, align 8
  %10 = icmp ne ptr %9, null
  br i1 %10, label %11, label %59

11:                                               ; preds = %2
  %12 = getelementptr inbounds %class.State, ptr %6, i32 0, i32 4
  %13 = getelementptr inbounds [2 x ptr], ptr %12, i64 0, i64 0
  %14 = load ptr, ptr %13, align 8
  %15 = getelementptr inbounds %class.State, ptr %14, i32 0, i32 1
  %16 = getelementptr inbounds [315 x i16], ptr %15, i64 0, i64 127
  %17 = load i16, ptr %16, align 2
  %18 = zext i16 %17 to i32
  %19 = and i32 %18, 1
  %20 = icmp ne i32 %19, 0
  br i1 %20, label %21, label %59

21:                                               ; preds = %11
  %22 = getelementptr inbounds %class.State, ptr %6, i32 0, i32 4
  %23 = getelementptr inbounds [2 x ptr], ptr %22, i64 0, i64 1
  %24 = load ptr, ptr %23, align 8
  %25 = icmp ne ptr %24, null
  br i1 %25, label %26, label %59

26:                                               ; preds = %21
  %27 = getelementptr inbounds %class.State, ptr %6, i32 0, i32 4
  %28 = getelementptr inbounds [2 x ptr], ptr %27, i64 0, i64 1
  %29 = load ptr, ptr %28, align 8
  %30 = getelementptr inbounds %class.State, ptr %29, i32 0, i32 1
  %31 = getelementptr inbounds [315 x i16], ptr %30, i64 0, i64 289
  %32 = load i16, ptr %31, align 2
  %33 = zext i16 %32 to i32
  %34 = and i32 %33, 1
  %35 = icmp ne i32 %34, 0
  br i1 %35, label %36, label %59

36:                                               ; preds = %26
  %37 = load i32, ptr @UseAVX, align 4
  %38 = icmp sgt i32 %37, 2
  br i1 %38, label %39, label %59

39:                                               ; preds = %36
  %40 = getelementptr inbounds %class.State, ptr %6, i32 0, i32 4
  %41 = getelementptr inbounds [2 x ptr], ptr %40, i64 0, i64 0
  %42 = load ptr, ptr %41, align 8
  %43 = getelementptr inbounds %class.State, ptr %42, i32 0, i32 0
  %44 = getelementptr inbounds [315 x i32], ptr %43, i64 0, i64 127
  %45 = load i32, ptr %44, align 4
  %46 = getelementptr inbounds %class.State, ptr %6, i32 0, i32 4
  %47 = getelementptr inbounds [2 x ptr], ptr %46, i64 0, i64 1
  %48 = load ptr, ptr %47, align 8
  %49 = getelementptr inbounds %class.State, ptr %48, i32 0, i32 0
  %50 = getelementptr inbounds [315 x i32], ptr %49, i64 0, i64 289
  %51 = load i32, ptr %50, align 4
  %52 = add i32 %45, %51
  %53 = add i32 %52, 100
  store i32 %53, ptr %5, align 4
  %54 = load i32, ptr %5, align 4
  %55 = getelementptr inbounds %class.State, ptr %6, i32 0, i32 0
  %56 = getelementptr inbounds [315 x i32], ptr %55, i64 0, i64 0
  store i32 %54, ptr %56, align 8
  %57 = getelementptr inbounds %class.State, ptr %6, i32 0, i32 1
  %58 = getelementptr inbounds [315 x i16], ptr %57, i64 0, i64 0
  store i16 2365, ptr %58, align 4
  br label %59

59:                                               ; preds = %39, %36, %26, %21, %11, %2
  ret void
}