; Function Attrs: mustprogress nofree norecurse nosync nounwind willreturn memory(read, argmem: readwrite, inaccessiblemem: none) uwtable
define hidden void @_ZN5State26_sub_Op_StoreVectorScatterEPK4Node(ptr nocapture noundef nonnull align 8 dereferenceable(1920) %0, ptr nocapture readnone %1) local_unnamed_addr #1 align 2 {
  %3 = getelementptr inbounds i8, ptr %0, i64 1904
  %4 = load ptr, ptr %3, align 8
  %.not = icmp eq ptr %4, null
  br i1 %.not, label %27, label %5

5:                                                ; preds = %2
  %6 = getelementptr inbounds i8, ptr %4, i64 1514
  %7 = load i16, ptr %6, align 2
  %8 = and i16 %7, 1
  %.not3 = icmp eq i16 %8, 0
  br i1 %.not3, label %27, label %9

9:                                                ; preds = %5
  %10 = getelementptr inbounds i8, ptr %0, i64 1912
  %11 = load ptr, ptr %10, align 8
  %.not4 = icmp eq ptr %11, null
  br i1 %.not4, label %27, label %12

12:                                               ; preds = %9
  %13 = getelementptr inbounds i8, ptr %11, i64 1838
  %14 = load i16, ptr %13, align 2
  %15 = and i16 %14, 1
  %16 = icmp ne i16 %15, 0
  %17 = load i32, ptr @UseAVX, align 4
  %18 = icmp sgt i32 %17, 2
  %or.cond = select i1 %16, i1 %18, i1 false
  br i1 %or.cond, label %19, label %27

19:                                               ; preds = %12
  %20 = getelementptr inbounds i8, ptr %4, i64 508
  %21 = load i32, ptr %20, align 4
  %22 = getelementptr inbounds i8, ptr %11, i64 1156
  %23 = load i32, ptr %22, align 4
  %24 = add i32 %21, 100
  %25 = add i32 %24, %23
  store i32 %25, ptr %0, align 8
  %26 = getelementptr inbounds i8, ptr %0, i64 1260
  store i16 2365, ptr %26, align 4
  br label %27

27:                                               ; preds = %19, %12, %9, %5, %2
  ret void
}